target datalayout = "e-m:e-p270:32:32-p271:32:32-p272:64:64-i64:64-i128:128-f80:128-n8:16:32:64-S128"
target triple = "x86_64-pc-linux-gnu"

%struct._zend_stack = type { i32, i32, i32, ptr }

; Function Attrs: nounwind uwtable
define ptr @zend_stack_top(ptr noundef %0) #0 {
  %2 = alloca ptr, align 8
  %3 = alloca ptr, align 8
  store ptr %0, ptr %3, align 8
  %4 = load ptr, ptr %3, align 8
  %5 = getelementptr inbounds %struct._zend_stack, ptr %4, i32 0, i32 1
  %6 = load i32, ptr %5, align 4
  %7 = icmp sgt i32 %6, 0
  br i1 %7, label %8, label %22

8:                                                ; preds = %1
  %9 = load ptr, ptr %3, align 8
  %10 = getelementptr inbounds %struct._zend_stack, ptr %9, i32 0, i32 3
  %11 = load ptr, ptr %10, align 8
  %12 = load ptr, ptr %3, align 8
  %13 = getelementptr inbounds %struct._zend_stack, ptr %12, i32 0, i32 0
  %14 = load i32, ptr %13, align 8
  %15 = load ptr, ptr %3, align 8
  %16 = getelementptr inbounds %struct._zend_stack, ptr %15, i32 0, i32 1
  %17 = load i32, ptr %16, align 4
  %18 = sub nsw i32 %17, 1
  %19 = mul nsw i32 %14, %18
  %20 = sext i32 %19 to i64
  %21 = getelementptr inbounds i8, ptr %11, i64 %20
  store ptr %21, ptr %2, align 8
  br label %23

22:                                               ; preds = %1
  store ptr null, ptr %2, align 8
  br label %23

23:                                               ; preds = %22, %8
  %24 = load ptr, ptr %2, align 8
  ret ptr %24
}