; Function Attrs: mustprogress nofree norecurse nosync nounwind willreturn memory(argmem: read) uwtable
define ptr @zend_stack_top(ptr nocapture noundef readonly %0) local_unnamed_addr #4 {
  %2 = getelementptr inbounds i8, ptr %0, i64 4
  %3 = load i32, ptr %2, align 4
  %4 = icmp sgt i32 %3, 0
  br i1 %4, label %5, label %13

5:                                                ; preds = %1
  %6 = getelementptr inbounds i8, ptr %0, i64 16
  %7 = load ptr, ptr %6, align 8
  %8 = load i32, ptr %0, align 8
  %9 = add nsw i32 %3, -1
  %10 = mul nsw i32 %8, %9
  %11 = sext i32 %10 to i64
  %12 = getelementptr inbounds i8, ptr %7, i64 %11
  br label %13

13:                                               ; preds = %1, %5
  %.0 = phi ptr [ %12, %5 ], [ null, %1 ]
  ret ptr %.0
}